target datalayout = "e-m:e-p270:32:32-p271:32:32-p272:64:64-i64:64-i128:128-f80:128-n8:16:32:64-S128"
target triple = "x86_64-unknown-linux-gnu"

@.str.15 = private unnamed_addr constant [141 x i8] c"generated/home/dtcxzyw/WorkSpace/Projects/compilers/llvm-opt-benchmark/bench/grpc/grpc/src/core/lib/security/credentials/jwt/jwt_verifier.cc\00", align 1
@.str.22 = private unnamed_addr constant [19 x i8] c"dot > email_domain\00", align 1

; Function Attrs: mustprogress uwtable
define noundef ptr @_Z28grpc_jwt_issuer_email_domainPKc(ptr noundef %issuer) #5 {
entry:
  %retval = alloca ptr, align 8
  %issuer.addr = alloca ptr, align 8
  %at_sign = alloca ptr, align 8
  %email_domain = alloca ptr, align 8
  %dot = alloca ptr, align 8
  store ptr %issuer, ptr %issuer.addr, align 8
  %0 = load ptr, ptr %issuer.addr, align 8
  %call = call noundef ptr @strchr(ptr noundef %0, i32 noundef 64) #16
  store ptr %call, ptr %at_sign, align 8
  %1 = load ptr, ptr %at_sign, align 8
  %cmp = icmp eq ptr %1, null
  br i1 %cmp, label %if.then, label %if.end

if.then:                                          ; preds = %entry
  store ptr null, ptr %retval, align 8
  br label %return

if.end:                                           ; preds = %entry
  %2 = load ptr, ptr %at_sign, align 8
  %add.ptr = getelementptr inbounds i8, ptr %2, i64 1
  store ptr %add.ptr, ptr %email_domain, align 8
  %3 = load ptr, ptr %email_domain, align 8
  %4 = load i8, ptr %3, align 1
  %conv = sext i8 %4 to i32
  %cmp1 = icmp eq i32 %conv, 0
  br i1 %cmp1, label %if.then2, label %if.end3

if.then2:                                         ; preds = %if.end
  store ptr null, ptr %retval, align 8
  br label %return

if.end3:                                          ; preds = %if.end
  %5 = load ptr, ptr %email_domain, align 8
  %call4 = call noundef ptr @strrchr(ptr noundef %5, i32 noundef 46) #16
  store ptr %call4, ptr %dot, align 8
  %6 = load ptr, ptr %dot, align 8
  %cmp5 = icmp eq ptr %6, null
  br i1 %cmp5, label %if.then7, label %lor.lhs.false

lor.lhs.false:                                    ; preds = %if.end3
  %7 = load ptr, ptr %dot, align 8
  %8 = load ptr, ptr %email_domain, align 8
  %cmp6 = icmp eq ptr %7, %8
  br i1 %cmp6, label %if.then7, label %if.end8

if.then7:                                         ; preds = %lor.lhs.false, %if.end3
  %9 = load ptr, ptr %email_domain, align 8
  store ptr %9, ptr %retval, align 8
  br label %return

if.end8:                                          ; preds = %lor.lhs.false
  br label %do.body

do.body:                                          ; preds = %if.end8
  %10 = load ptr, ptr %dot, align 8
  %11 = load ptr, ptr %email_domain, align 8
  %cmp9 = icmp ugt ptr %10, %11
  %lnot = xor i1 %cmp9, true
  br i1 %lnot, label %if.then11, label %if.end12

if.then11:                                        ; preds = %do.body
  call void @gpr_assertion_failed(ptr noundef @.str.15, i32 noundef 828, ptr noundef @.str.22) #17
  unreachable

if.end12:                                         ; preds = %do.body
  br label %do.end

do.end:                                           ; preds = %if.end12
  %12 = load ptr, ptr %email_domain, align 8
  %13 = load ptr, ptr %dot, align 8
  %14 = load ptr, ptr %email_domain, align 8
  %sub.ptr.lhs.cast = ptrtoint ptr %13 to i64
  %sub.ptr.rhs.cast = ptrtoint ptr %14 to i64
  %sub.ptr.sub = sub i64 %sub.ptr.lhs.cast, %sub.ptr.rhs.cast
  %call13 = call noundef ptr @_Z11gpr_memrchrPKvim(ptr noundef %12, i32 noundef 46, i64 noundef %sub.ptr.sub)
  store ptr %call13, ptr %dot, align 8
  %15 = load ptr, ptr %dot, align 8
  %cmp14 = icmp eq ptr %15, null
  br i1 %cmp14, label %if.then15, label %if.end16

if.then15:                                        ; preds = %do.end
  %16 = load ptr, ptr %email_domain, align 8
  store ptr %16, ptr %retval, align 8
  br label %return

if.end16:                                         ; preds = %do.end
  %17 = load ptr, ptr %dot, align 8
  %add.ptr17 = getelementptr inbounds i8, ptr %17, i64 1
  store ptr %add.ptr17, ptr %retval, align 8
  br label %return

return:                                           ; preds = %if.end16, %if.then15, %if.then7, %if.then2, %if.then
  %18 = load ptr, ptr %retval, align 8
  ret ptr %18
}