; Function Attrs: mustprogress uwtable
define noundef ptr @_Z28grpc_jwt_issuer_email_domainPKc(ptr noundef %issuer) local_unnamed_addr #4 {
entry:
  %call = tail call noundef ptr @strchr(ptr noundef nonnull dereferenceable(1) %issuer, i32 noundef 64) #26
  %cmp = icmp eq ptr %call, null
  br i1 %cmp, label %return, label %if.end

if.end:                                           ; preds = %entry
  %add.ptr = getelementptr inbounds i8, ptr %call, i64 1
  %0 = load i8, ptr %add.ptr, align 1
  %cmp1 = icmp eq i8 %0, 0
  br i1 %cmp1, label %return, label %if.end3

if.end3:                                          ; preds = %if.end
  %call4 = tail call noundef ptr @strrchr(ptr noundef nonnull dereferenceable(1) %add.ptr, i32 noundef 46) #26
  %cmp5 = icmp eq ptr %call4, null
  %cmp6 = icmp eq ptr %call4, %add.ptr
  %or.cond = or i1 %cmp5, %cmp6
  br i1 %or.cond, label %return, label %do.body

do.body:                                          ; preds = %if.end3
  %cmp9.not = icmp ugt ptr %call4, %add.ptr
  br i1 %cmp9.not, label %do.end, label %if.then11

if.then11:                                        ; preds = %do.body
  tail call void @gpr_assertion_failed(ptr noundef nonnull @.str.15, i32 noundef 828, ptr noundef nonnull @.str.22) #25
  unreachable

do.end:                                           ; preds = %do.body
  %sub.ptr.lhs.cast = ptrtoint ptr %call4 to i64
  %sub.ptr.rhs.cast = ptrtoint ptr %add.ptr to i64
  %sub.ptr.sub = sub i64 %sub.ptr.lhs.cast, %sub.ptr.rhs.cast
  %call13 = tail call noundef ptr @_Z11gpr_memrchrPKvim(ptr noundef nonnull %add.ptr, i32 noundef 46, i64 noundef %sub.ptr.sub)
  %cmp14 = icmp eq ptr %call13, null
  %add.ptr17 = getelementptr inbounds i8, ptr %call13, i64 1
  %spec.select = select i1 %cmp14, ptr %add.ptr, ptr %add.ptr17
  br label %return

return:                                           ; preds = %do.end, %if.end3, %if.end, %entry
  %retval.0 = phi ptr [ null, %entry ], [ null, %if.end ], [ %add.ptr, %if.end3 ], [ %spec.select, %do.end ]
  ret ptr %retval.0
}